-----BEGIN PRIVATE KEY-----
MIICdwIBADANBgkqhkiG9w0BAQEFAASCAmEwggJdAgEAAoGBALGgH1uRr460ydn2
AkaixAV6sWpNM2U9jxxf91i919zjhqreGrfCMTi4x6qtIdBq3ZY4GAogRDOr0DiO
zNh/eIFsC0Nl6v34tIZs6BIoGP4nCNLvaICNWOLPSmEFU9deJyYh/7j58+W+ptIV
uC8K26N2ZID5ZF0DcxE9dVqlM4AdAgMBAAECgYEAoD86Kw1bGd7mgBoeYYV0XREc
wC9X381SsCGv78KN3XzzQHHSHtg2OdsSX1uEtxfCQ0TmAzSq8wbdejjye5s8pd1P
PoUafybllWmIZXdO0X+MbDfV5iLabE/7kM08TP2BurKpTOUPWdd1LjhMan8zD0zr
auS+9UWJf1J/armgicECQQDcaxwO2tXNcTTbVdQl6kOe6fyeDSKfN39hT2GnarTt
Ce9hkgnCIwXW8Alsh52Arfv1ZvQRI4K/8/92dwJ9NprNAkEAzkyTetuKOpQiGJn+
GhCFOLUvvpxIrAHqDxfcaKglvw+BOzsDvRqNFL5x1Uk8f+fWmodkBkON58L95RUf
XcEakQJBAMybkPwpH/cJc2t3jOt1PzgxNJLy1oS927zVF211nGW9pz0Hd4+DO1R+
lgDtEsP0vcLbwwx1zlWphibN6r2ZBrECQHwZlJ5TctPKSLiD6lfDmGCEnjQLz6up
eyOZNv2+KPbGXPdEiPs4/aV86v1jEQHgdTiAOauK99JzekhUbIn5oAECQAHfTiPe
PdAuIoerzE/j/iRcS2MJfofYdFKO/sjSvHeutu0RJrjfUL/Ga7+4K1SHG00aM4xD
6bWpOzeXVjZenIc=
-----END PRIVATE KEY-----
Certificate:
    Data:
        Version: 3 (0x2)
        Serial Number: 56 (0x38)
        Signature Algorithm: sha1WithRSAEncryption
        Issuer: C=CA, O=GC, OU=DFO-MPO, CN=esas-ca
        Validity
            Not Before: May 13 13:06:54 2014 GMT
            Not After : May 10 13:06:54 2024 GMT
        Subject: C=CA, O=DFO-MPO, OU=GC, CN=urn:dfo:names:tc:eaccess:prod:sp:app:aps-cmdb:prd
        Subject Public Key Info:
            Public Key Algorithm: rsaEncryption
            RSA Public Key: (1024 bit)
                Modulus (1024 bit):
                    00:b1:a0:1f:5b:91:af:8e:b4:c9:d9:f6:02:46:a2:
                    c4:05:7a:b1:6a:4d:33:65:3d:8f:1c:5f:f7:58:bd:
                    d7:dc:e3:86:aa:de:1a:b7:c2:31:38:b8:c7:aa:ad:
                    21:d0:6a:dd:96:38:18:0a:20:44:33:ab:d0:38:8e:
                    cc:d8:7f:78:81:6c:0b:43:65:ea:fd:f8:b4:86:6c:
                    e8:12:28:18:fe:27:08:d2:ef:68:80:8d:58:e2:cf:
                    4a:61:05:53:d7:5e:27:26:21:ff:b8:f9:f3:e5:be:
                    a6:d2:15:b8:2f:0a:db:a3:76:64:80:f9:64:5d:03:
                    73:11:3d:75:5a:a5:33:80:1d
                Exponent: 65537 (0x10001)
        X509v3 extensions:
            X509v3 Basic Constraints: 
                CA:FALSE
            X509v3 Subject Key Identifier: 
                B2:C7:57:3C:4E:9A:7B:91:B7:D9:E8:04:97:81:26:28:FB:70:98:A0
            X509v3 Authority Key Identifier: 
                keyid:EE:1C:5C:96:22:0B:79:FC:2A:03:11:0C:CA:B9:57:9E:A6:2B:E6:5D
                DirName:/C=CA/O=GC/OU=DFO-MPO/CN=esas-ca
                serial:A8:52:08:71:A0:B8:8E:C8

    Signature Algorithm: sha1WithRSAEncryption
        0a:9a:bc:66:ac:9b:71:75:e7:4c:86:06:93:14:6b:ff:ac:ec:
        fb:73:94:65:21:4a:35:5f:ca:dd:48:2a:31:8b:15:6b:e5:1d:
        2e:fe:ec:d2:e8:77:ba:67:d7:9f:5b:4d:08:d5:f4:44:bf:0b:
        db:aa:02:e0:7e:19:f9:32:75:15:a0:41:0e:3e:d0:1b:9f:4f:
        f8:35:a9:84:0b:34:65:51:34:03:fc:24:07:ba:c0:bf:47:f7:
        a0:d4:38:f3:9c:5e:dc:3d:6c:14:cf:8a:99:a3:39:73:51:f8:
        aa:87:2c:49:2b:cf:ef:ee:e1:cc:14:57:db:e7:1e:cd:a7:f4:
        b9:d2
-----BEGIN CERTIFICATE-----
MIICujCCAiOgAwIBAgIBODANBgkqhkiG9w0BAQUFADA+MQswCQYDVQQGEwJDQTEL
MAkGA1UEChMCR0MxEDAOBgNVBAsTB0RGTy1NUE8xEDAOBgNVBAMTB2VzYXMtY2Ew
HhcNMTQwNTEzMTMwNjU0WhcNMjQwNTEwMTMwNjU0WjBoMQswCQYDVQQGEwJDQTEQ
MA4GA1UECgwHREZPLU1QTzELMAkGA1UECwwCR0MxOjA4BgNVBAMMMXVybjpkZm86
bmFtZXM6dGM6ZWFjY2Vzczpwcm9kOnNwOmFwcDphcHMtY21kYjpwcmQwgZ8wDQYJ
KoZIhvcNAQEBBQADgY0AMIGJAoGBALGgH1uRr460ydn2AkaixAV6sWpNM2U9jxxf
91i919zjhqreGrfCMTi4x6qtIdBq3ZY4GAogRDOr0DiOzNh/eIFsC0Nl6v34tIZs
6BIoGP4nCNLvaICNWOLPSmEFU9deJyYh/7j58+W+ptIVuC8K26N2ZID5ZF0DcxE9
dVqlM4AdAgMBAAGjgZ0wgZowCQYDVR0TBAIwADAdBgNVHQ4EFgQUssdXPE6ae5G3
2egEl4EmKPtwmKAwbgYDVR0jBGcwZYAU7hxcliILefwqAxEMyrlXnqYr5l2hQqRA
MD4xCzAJBgNVBAYTAkNBMQswCQYDVQQKEwJHQzEQMA4GA1UECxMHREZPLU1QTzEQ
MA4GA1UEAxMHZXNhcy1jYYIJAKhSCHGguI7IMA0GCSqGSIb3DQEBBQUAA4GBAAqa
vGasm3F150yGBpMUa/+s7PtzlGUhSjVfyt1IKjGLFWvlHS7+7NLod7pn159bTQjV
9ES/C9uqAuB+GfkydRWgQQ4+0BufT/g1qYQLNGVRNAP8JAe6wL9H96DUOPOcXtw9
bBTPipmjOXNR+KqHLEkrz+/u4cwUV9vnHs2n9LnS
-----END CERTIFICATE-----
