-----BEGIN PRIVATE KEY-----
MIICdgIBADANBgkqhkiG9w0BAQEFAASCAmAwggJcAgEAAoGBAL/nlEKYp6tE/Wu4
gFbT88zva/xvpvP964VbfY1zsBSilsG5dx0lkmrCTe150PNoWEnzfip/8a1lz2rK
IDX2zVB4Lg0d4jcun3G6cFOy8iuUMpN3BVTbUCWDc2XF56S/HIBuPoMIeiBFi7U4
ri3pOTzIBS4mHRX9t064Gy1aoi9DAgMBAAECgYBK3K5LpH2UJJ+vzBPUy25KPgQk
P/IjMKUWKvC5o63G/v5MqGs9JZEOsKnxwBmxOr1ma+SF889100es4xjZtGO3GZUg
zy4/gBIi2gGs0KC+u46obyK81d8F19p8InSeY98EadEp/JBYxDnk/F2j3FxHPG7W
M+vvWlFQw8VvFVY5sQJBAOGtp/6QUcibfSO702wgONK2vHjl+NjGeLGcc6QAPID7
UnPTFKPPoEJR+8ndDg3dF9F/9TxGNht8OI9pMBv2bQ0CQQDZsEExCGlj/xRo1sIk
HlDq9wYEZix7DyzcaQ9comg3vz8nFUx9rQe1A9c1tvzKUN+ajrqEmoBqFaVg2Q11
aRmPAkB3QZUs6IbPQ5t1bqPi14QvlXEzUhOWOgs9kDdrytQuNKD1o+2cQvOlGD2+
BpqOqO8VPlERcOjWzWX2ItfRbv9hAkA/GBHdF1YMkJsmw9AjTdIgOBa7Ya3UwRI8
lArKy5uvRLQWLNsttd/8/C79N5tPPF+C2Yl/85Pyq3Fyf5aiCCNLAkEAk7zMlYKy
ZF9ui5Gc3HwJQ0lC/YzNVGWJTSJu02R/O8rFTBJXYYffqGyJYXaGSFYpZ+8Uer/d
SwPYN5NPZi931A==
-----END PRIVATE KEY-----
Certificate:
    Data:
        Version: 3 (0x2)
        Serial Number: 55 (0x37)
        Signature Algorithm: sha1WithRSAEncryption
        Issuer: C=CA, O=GC, OU=DFO-MPO, CN=esas-ca
        Validity
            Not Before: May 13 13:06:54 2014 GMT
            Not After : May 10 13:06:54 2024 GMT
        Subject: C=CA, O=DFO-MPO, OU=GC, CN=urn:dfo:names:tc:eaccess:qa:sp:app:aps-cmdb:dev
        Subject Public Key Info:
            Public Key Algorithm: rsaEncryption
            RSA Public Key: (1024 bit)
                Modulus (1024 bit):
                    00:bf:e7:94:42:98:a7:ab:44:fd:6b:b8:80:56:d3:
                    f3:cc:ef:6b:fc:6f:a6:f3:fd:eb:85:5b:7d:8d:73:
                    b0:14:a2:96:c1:b9:77:1d:25:92:6a:c2:4d:ed:79:
                    d0:f3:68:58:49:f3:7e:2a:7f:f1:ad:65:cf:6a:ca:
                    20:35:f6:cd:50:78:2e:0d:1d:e2:37:2e:9f:71:ba:
                    70:53:b2:f2:2b:94:32:93:77:05:54:db:50:25:83:
                    73:65:c5:e7:a4:bf:1c:80:6e:3e:83:08:7a:20:45:
                    8b:b5:38:ae:2d:e9:39:3c:c8:05:2e:26:1d:15:fd:
                    b7:4e:b8:1b:2d:5a:a2:2f:43
                Exponent: 65537 (0x10001)
        X509v3 extensions:
            X509v3 Basic Constraints: 
                CA:FALSE
            X509v3 Subject Key Identifier: 
                01:2B:FD:04:82:67:C5:8E:B3:61:0D:37:44:FA:5A:07:71:57:9F:A9
            X509v3 Authority Key Identifier: 
                keyid:EE:1C:5C:96:22:0B:79:FC:2A:03:11:0C:CA:B9:57:9E:A6:2B:E6:5D
                DirName:/C=CA/O=GC/OU=DFO-MPO/CN=esas-ca
                serial:A8:52:08:71:A0:B8:8E:C8

    Signature Algorithm: sha1WithRSAEncryption
        52:6c:d7:38:96:1b:5b:d2:bf:d3:51:1f:aa:d7:87:61:92:1f:
        f5:b3:e1:2f:28:f2:56:b4:2a:da:3c:d7:0b:89:f3:54:3c:c6:
        5a:d1:f0:32:93:a6:cf:17:e2:38:12:59:c1:51:e3:28:9d:70:
        32:35:e1:77:03:a9:ee:f7:71:8a:a2:51:7e:c7:0e:3d:a6:d8:
        18:16:ee:4d:ad:a1:7c:a2:4f:42:d4:0e:c2:14:70:f6:28:fe:
        f8:46:7b:98:c5:d7:dc:83:d6:43:d9:97:1c:54:58:fc:49:00:
        25:c9:22:38:d4:47:9a:52:9b:88:1b:ab:8a:f5:fd:f4:ed:ec:
        12:90
-----BEGIN CERTIFICATE-----
MIICuDCCAiGgAwIBAgIBNzANBgkqhkiG9w0BAQUFADA+MQswCQYDVQQGEwJDQTEL
MAkGA1UEChMCR0MxEDAOBgNVBAsTB0RGTy1NUE8xEDAOBgNVBAMTB2VzYXMtY2Ew
HhcNMTQwNTEzMTMwNjU0WhcNMjQwNTEwMTMwNjU0WjBmMQswCQYDVQQGEwJDQTEQ
MA4GA1UECgwHREZPLU1QTzELMAkGA1UECwwCR0MxODA2BgNVBAMML3VybjpkZm86
bmFtZXM6dGM6ZWFjY2VzczpxYTpzcDphcHA6YXBzLWNtZGI6ZGV2MIGfMA0GCSqG
SIb3DQEBAQUAA4GNADCBiQKBgQC/55RCmKerRP1ruIBW0/PM72v8b6bz/euFW32N
c7AUopbBuXcdJZJqwk3tedDzaFhJ834qf/GtZc9qyiA19s1QeC4NHeI3Lp9xunBT
svIrlDKTdwVU21Alg3NlxeekvxyAbj6DCHogRYu1OK4t6Tk8yAUuJh0V/bdOuBst
WqIvQwIDAQABo4GdMIGaMAkGA1UdEwQCMAAwHQYDVR0OBBYEFAEr/QSCZ8WOs2EN
N0T6WgdxV5+pMG4GA1UdIwRnMGWAFO4cXJYiC3n8KgMRDMq5V56mK+ZdoUKkQDA+
MQswCQYDVQQGEwJDQTELMAkGA1UEChMCR0MxEDAOBgNVBAsTB0RGTy1NUE8xEDAO
BgNVBAMTB2VzYXMtY2GCCQCoUghxoLiOyDANBgkqhkiG9w0BAQUFAAOBgQBSbNc4
lhtb0r/TUR+q14dhkh/1s+EvKPJWtCraPNcLifNUPMZa0fAyk6bPF+I4ElnBUeMo
nXAyNeF3A6nu93GKolF+xw49ptgYFu5NraF8ok9C1A7CFHD2KP74RnuYxdfcg9ZD
2ZccVFj8SQAlySI41EeaUpuIG6uK9f307ewSkA==
-----END CERTIFICATE-----
